(dp0
S'1596329427'
p1
(dp2
V\u623f\u5730\u4ea7
p3
F118.5
sV\u533b\u7597
p4
F67.0
sV\u4f53\u80b2
p5
F34.0
sV\u8d22\u7ecf
p6
F56.5
sV\u516c\u76ca
p7
F39.5
sV\u4f20\u5a92
p8
F0.0
sV\u6587\u5b66
p9
F48.5
sV\u5f71\u89c6
p10
F10.5
sV\u65f6\u5c1a
p11
F0.0
sV\u6559\u80b2
p12
F133.0
ssS'1223299212'
p13
(dp14
g3
F175.0
sg4
F19.5
sg5
F6.5
sg6
F51.5
sg7
F0.0
sg8
F2.5
sg9
F23.0
sg10
F1.5
sg11
F0.0
sg12
F29.0
ssS'1649166140'
p15
(dp16
g3
F31.5
sg4
F3.5
sg5
F122.5
sg6
F22.5
sg7
F16.0
sg8
F0.0
sg9
F0.0
sg10
F35.5
sg11
F16.5
sg12
F14.0
ssS'1806062307'
p17
(dp18
g3
F0.0
sg4
F0.0
sg5
F0.0
sg6
F2.5
sg7
F0.0
sg8
F0.0
sg9
F0.0
sg10
F5.5
sg11
F0.0
sg12
F0.0
ssS'1191258123'
p19
(dp20
g3
F0.0
sg4
F0.0
sg5
F0.0
sg6
F0.0
sg7
F0.0
sg8
F0.0
sg9
F0.0
sg10
F0.0
sg11
F0.0
sg12
F0.0
ssS'1604350954'
p21
(dp22
g3
F27.0
sg4
F13.5
sg5
F10.5
sg6
F10.5
sg7
F6.0
sg8
F8.5
sg9
F8.0
sg10
F10.0
sg11
F21.5
sg12
F16.5
ssS'1223250145'
p23
(dp24
g3
F21.0
sg4
F8.5
sg5
F8.0
sg6
F13.5
sg7
F7.0
sg8
F8.5
sg9
F8.0
sg10
F7.5
sg11
F4.5
sg12
F13.0
ssS'1750328255'
p25
(dp26
g3
F13.0
sg4
F15.0
sg5
F7.0
sg6
F9.5
sg7
F10.5
sg8
F5.5
sg9
F4.5
sg10
F5.0
sg11
F4.5
sg12
F10.0
ssS'1651047782'
p27
(dp28
g3
F19.5
sg4
F19.0
sg5
F11.0
sg6
F13.0
sg7
F8.5
sg8
F9.5
sg9
F9.5
sg10
F6.5
sg11
F6.5
sg12
F13.5
ssS'1465136035'
p29
(dp30
g3
F46.0
sg4
F16.5
sg5
F103.5
sg6
F32.0
sg7
F11.0
sg8
F9.5
sg9
F15.0
sg10
F42.0
sg11
F12.5
sg12
F23.0
ssS'1188552450'
p31
(dp32
g3
F31.5
sg4
F0.0
sg5
F27.5
sg6
F20.5
sg7
F0.0
sg8
F0.0
sg9
F233.5
sg10
F297.0
sg11
F20.0
sg12
F0.0
ssS'1871721375'
p33
(dp34
g3
F116.5
sg4
F78.0
sg5
F58.5
sg6
F89.5
sg7
F52.5
sg8
F35.0
sg9
F44.5
sg10
F54.0
sg11
F19.0
sg12
F122.5
ssS'1265061803'
p35
(dp36
g3
F30.0
sg4
F6.5
sg5
F77.5
sg6
F34.5
sg7
F15.0
sg8
F17.0
sg9
F21.5
sg10
F49.5
sg11
F59.5
sg12
F21.0
ssS'1249193625'
p37
(dp38
g3
F162.0
sg4
F0.0
sg5
F92.5
sg6
F29.0
sg7
F0.0
sg8
F0.0
sg9
F61.0
sg10
F0.0
sg11
F0.0
sg12
F109.5
ssS'2597758530'
p39
(dp40
g3
F7.0
sg4
F4.5
sg5
F3.0
sg6
F3.0
sg7
F2.0
sg8
F2.0
sg9
F1.5
sg10
F1.5
sg11
F2.5
sg12
F4.0
ssS'1435160552'
p41
(dp42
g3
F244.5
sg4
F130.0
sg5
F74.5
sg6
F130.5
sg7
F63.5
sg8
F50.0
sg9
F74.0
sg10
F50.5
sg11
F19.0
sg12
F131.0
ssS'1197069394'
p43
(dp44
g3
F64.5
sg4
F22.5
sg5
F74.0
sg6
F81.5
sg7
F29.5
sg8
F23.0
sg9
F28.0
sg10
F81.0
sg11
F99.5
sg12
F25.5
ssS'1282005885'
p45
(dp46
g3
F0.0
sg4
F0.0
sg5
F0.0
sg6
F0.0
sg7
F0.0
sg8
F0.0
sg9
F0.0
sg10
F0.0
sg11
F0.0
sg12
F0.0
ssS'1501333927'
p47
(dp48
g3
F13.0
sg4
F10.5
sg5
F8.0
sg6
F12.0
sg7
F17.0
sg8
F5.0
sg9
F4.5
sg10
F5.0
sg11
F3.5
sg12
F8.5
ssS'1270468784'
p49
(dp50
g3
F0.0
sg4
F0.0
sg5
F0.0
sg6
F36.5
sg7
F186.5
sg8
F0.0
sg9
F0.0
sg10
F0.0
sg11
F0.0
sg12
F0.0
ssS'1745573472'
p51
(dp52
g3
F156.5
sg4
F149.5
sg5
F85.0
sg6
F80.5
sg7
F21.0
sg8
F0.0
sg9
F26.0
sg10
F45.0
sg11
F0.0
sg12
F128.5
ssS'1642351362'
p53
(dp54
g3
F28.5
sg4
F0.0
sg5
F31.5
sg6
F32.0
sg7
F14.5
sg8
F0.0
sg9
F13.5
sg10
F110.5
sg11
F29.0
sg12
F0.0
ssS'1003763994'
p55
(dp56
g3
F71.5
sg4
F42.0
sg5
F34.0
sg6
F56.0
sg7
F25.0
sg8
F30.5
sg9
F32.0
sg10
F28.5
sg11
F15.5
sg12
F71.5
ssS'1635764393'
p57
(dp58
g3
F96.5
sg4
F20.0
sg5
F67.0
sg6
F70.0
sg7
F7.0
sg8
F44.5
sg9
F91.5
sg10
F24.0
sg11
F25.0
sg12
F104.5
ssS'1263762522'
p59
(dp60
g3
F26.0
sg4
F5.0
sg5
F98.0
sg6
F11.5
sg7
F5.0
sg8
F0.0
sg9
F15.5
sg10
F21.0
sg11
F9.5
sg12
F8.0
ssS'1044527073'
p61
(dp62
g3
F36.5
sg4
F14.5
sg5
F7.0
sg6
F17.0
sg7
F8.0
sg8
F6.5
sg9
F4.5
sg10
F7.0
sg11
F5.0
sg12
F14.5
ssS'1219494175'
p63
(dp64
g3
F15.0
sg4
F11.5
sg5
F5.5
sg6
F24.0
sg7
F4.5
sg8
F9.0
sg9
F12.5
sg10
F5.0
sg11
F0.0
sg12
F22.5
ssS'1222713954'
p65
(dp66
g3
F248.5
sg4
F140.5
sg5
F47.0
sg6
F92.0
sg7
F55.5
sg8
F13.0
sg9
F74.0
sg10
F43.0
sg11
F0.0
sg12
F206.5
ssS'1224180577'
p67
(dp68
g3
F69.0
sg4
F18.0
sg5
F11.0
sg6
F21.0
sg7
F7.5
sg8
F7.0
sg9
F11.5
sg10
F11.0
sg11
F2.0
sg12
F18.5
ssS'1198392970'
p69
(dp70
g3
F28.5
sg4
F0.0
sg5
F52.5
sg6
F0.0
sg7
F12.0
sg8
F0.0
sg9
F34.0
sg10
F11.0
sg11
F0.0
sg12
F37.5
ssS'1483330984'
p71
(dp72
g3
F147.0
sg4
F78.5
sg5
F78.5
sg6
F115.5
sg7
F70.0
sg8
F93.0
sg9
F64.0
sg10
F68.5
sg11
F55.0
sg12
F112.5
ssS'1889213710'
p73
(dp74
g3
F79.5
sg4
F28.0
sg5
F12.0
sg6
F40.5
sg7
F14.0
sg8
F20.5
sg9
F22.0
sg10
F9.0
sg11
F2.5
sg12
F52.0
ssS'1407750943'
p75
(dp76
g3
F6.0
sg4
F5.0
sg5
F3.0
sg6
F6.0
sg7
F5.5
sg8
F5.5
sg9
F10.0
sg10
F3.5
sg11
F3.0
sg12
F7.0
ss.